; Function Attrs: mustprogress uwtable
define dso_local void @_ZN24btMultiBodyDynamicsWorld16solveConstraintsER19btContactSolverInfo(ptr noundef nonnull align 8 dereferenceable(848) %0, ptr noundef nonnull align 4 dereferenceable(128) %1) unnamed_addr #0 align 2 {
  %3 = load ptr, ptr %0, align 8, !tbaa !105
  %4 = getelementptr inbounds nuw i8, ptr %3, i64 496
  %5 = load ptr, ptr %4, align 8
  tail call void %5(ptr noundef nonnull align 8 dereferenceable(848) %0, ptr noundef nonnull align 4 dereferenceable(128) %1)
  %6 = getelementptr inbounds nuw i8, ptr %0, i64 328
  %7 = load ptr, ptr %6, align 8, !tbaa !76
  %8 = getelementptr inbounds nuw i8, ptr %0, i64 40
  %9 = load ptr, ptr %8, align 8, !tbaa !104
  %10 = getelementptr inbounds nuw i8, ptr %0, i64 616
  %11 = load ptr, ptr %10, align 8, !tbaa !153
  tail call void @_ZN25btSimulationIslandManager22buildAndProcessIslandsEP12btDispatcherP16btCollisionWorldPNS_14IslandCallbackE(ptr noundef nonnull align 8 dereferenceable(105) %7, ptr noundef %9, ptr noundef nonnull align 8 dereferenceable(848) %0, ptr noundef %11)
  %12 = load ptr, ptr %0, align 8, !tbaa !105
  %13 = getelementptr inbounds nuw i8, ptr %12, i64 504
  %14 = load ptr, ptr %13, align 8
  tail call void %14(ptr noundef nonnull align 8 dereferenceable(848) %0, ptr noundef nonnull align 4 dereferenceable(128) %1)
  ret void
}